; Function Attrs: mustprogress uwtable
define hidden void @_ZN3sat6solver15drat_log_clauseEjPKNS_7literalENS_6statusE(ptr noundef nonnull align 8 dereferenceable(4408) %this, i32 noundef %num_lits, ptr noundef %lits, ptr nocapture noundef readonly %st) local_unnamed_addr #3 align 2 {
entry:
  %agg.tmp = alloca %"class.sat::status", align 8
  %m_drat = getelementptr inbounds i8, ptr %this, i64 552
  %0 = load <2 x i32>, ptr %st, align 8
  store <2 x i32> %0, ptr %agg.tmp, align 8
  %m_hint.i = getelementptr inbounds i8, ptr %agg.tmp, i64 8
  %m_hint4.i = getelementptr inbounds i8, ptr %st, i64 8
  %1 = load ptr, ptr %m_hint4.i, align 8
  store ptr %1, ptr %m_hint.i, align 8
  call void @_ZN3sat4drat3addEjPKNS_7literalENS_6statusE(ptr noundef nonnull align 8 dereferenceable(664) %m_drat, i32 noundef %num_lits, ptr noundef %lits, ptr noundef nonnull %agg.tmp)
  ret void
}